(lp0
cnumpy.core.multiarray
scalar
p1
(cnumpy
dtype
p2
(S'f8'
p3
I0
I1
tp4
Rp5
(I3
S'<'
p6
NNNI-1
I-1
I0
tp7
bS'kz\x98S\xcet\x17@'
p8
tp9
Rp10
ag1
(g5
S'17f\xd5p\x8a1@'
p11
tp12
Rp13
ag1
(g5
S'5\xcd;N\xd1Q @'
p14
tp15
Rp16
ag1
(g5
S'CA\xe6\xa4\xa9\xa4-@'
p17
tp18
Rp19
a.